target datalayout = "e-m:e-p270:32:32-p271:32:32-p272:64:64-i64:64-i128:128-f80:128-n8:16:32:64-S128"
target triple = "x86_64-pc-linux-gnu"

%struct._php_stream = type { ptr, ptr, %struct._php_stream_filter_chain, %struct._php_stream_filter_chain, ptr, ptr, %struct._zval_struct, i16, [16 x i8], i32, ptr, ptr, ptr, ptr, i64, ptr, i64, i64, i64, i64, ptr }
%struct._php_stream_filter_chain = type { ptr, ptr, ptr }
%struct._zval_struct = type { %union._zend_value, %union.anon, %union.anon.2 }
%union._zend_value = type { i64 }
%union.anon = type { i32 }
%union.anon.2 = type { i32 }
%struct.php_stream_temp_data = type { ptr, i64, i32, %struct._zval_struct, ptr }

; Function Attrs: nounwind uwtable
define internal i32 @php_stream_temp_close(ptr noundef %0, i32 noundef %1) #0 {
  %3 = alloca ptr, align 8
  %4 = alloca i32, align 4
  %5 = alloca ptr, align 8
  %6 = alloca i32, align 4
  store ptr %0, ptr %3, align 8
  store i32 %1, ptr %4, align 4
  %7 = load ptr, ptr %3, align 8
  %8 = getelementptr inbounds %struct._php_stream, ptr %7, i32 0, i32 1
  %9 = load ptr, ptr %8, align 8
  store ptr %9, ptr %5, align 8
  %10 = load ptr, ptr %5, align 8
  %11 = getelementptr inbounds %struct.php_stream_temp_data, ptr %10, i32 0, i32 0
  %12 = load ptr, ptr %11, align 8
  %13 = icmp ne ptr %12, null
  br i1 %13, label %14, label %23

14:                                               ; preds = %2
  %15 = load ptr, ptr %5, align 8
  %16 = getelementptr inbounds %struct.php_stream_temp_data, ptr %15, i32 0, i32 0
  %17 = load ptr, ptr %16, align 8
  %18 = load i32, ptr %4, align 4
  %19 = icmp ne i32 %18, 0
  %20 = select i1 %19, i32 0, i32 4
  %21 = or i32 3, %20
  %22 = call i32 @_php_stream_free_enclosed(ptr noundef %17, i32 noundef %21)
  store i32 %22, ptr %6, align 4
  br label %24

23:                                               ; preds = %2
  store i32 0, ptr %6, align 4
  br label %24

24:                                               ; preds = %23, %14
  %25 = load ptr, ptr %5, align 8
  %26 = getelementptr inbounds %struct.php_stream_temp_data, ptr %25, i32 0, i32 3
  call void @zval_ptr_dtor(ptr noundef %26)
  %27 = load ptr, ptr %5, align 8
  %28 = getelementptr inbounds %struct.php_stream_temp_data, ptr %27, i32 0, i32 4
  %29 = load ptr, ptr %28, align 8
  %30 = icmp ne ptr %29, null
  br i1 %30, label %31, label %35

31:                                               ; preds = %24
  %32 = load ptr, ptr %5, align 8
  %33 = getelementptr inbounds %struct.php_stream_temp_data, ptr %32, i32 0, i32 4
  %34 = load ptr, ptr %33, align 8
  call void @_efree(ptr noundef %34)
  br label %35

35:                                               ; preds = %31, %24
  %36 = load ptr, ptr %5, align 8
  call void @_efree(ptr noundef %36)
  %37 = load i32, ptr %6, align 4
  ret i32 %37
}