; Function Attrs: nounwind uwtable
define internal i32 @php_stream_temp_close(ptr nocapture noundef readonly %0, i32 noundef %1) #0 {
  %3 = getelementptr inbounds i8, ptr %0, i64 8
  %4 = load ptr, ptr %3, align 8
  %5 = load ptr, ptr %4, align 8
  %.not = icmp eq ptr %5, null
  br i1 %.not, label %9, label %6

6:                                                ; preds = %2
  %.not10 = icmp eq i32 %1, 0
  %7 = select i1 %.not10, i32 7, i32 3
  %8 = tail call i32 @_php_stream_free_enclosed(ptr noundef nonnull %5, i32 noundef %7) #20
  br label %9

9:                                                ; preds = %2, %6
  %.0 = phi i32 [ %8, %6 ], [ 0, %2 ]
  %10 = getelementptr inbounds i8, ptr %4, i64 24
  tail call void @zval_ptr_dtor(ptr noundef nonnull %10) #20
  %11 = getelementptr inbounds i8, ptr %4, i64 40
  %12 = load ptr, ptr %11, align 8
  %.not11 = icmp eq ptr %12, null
  br i1 %.not11, label %14, label %13

13:                                               ; preds = %9
  tail call void @_efree(ptr noundef nonnull %12) #20
  br label %14

14:                                               ; preds = %13, %9
  tail call void @_efree(ptr noundef nonnull %4) #20
  ret i32 %.0
}